; Function Attrs: mustprogress nounwind uwtable
define internal void @"_ZNSt17_Function_handlerIFvRN4llvm19MachineInstrBuilderEEZNK12_GLOBAL__N_126AArch64InstructionSelector20tryFoldAddLowIntoImmERNS0_12MachineInstrEjRNS0_19MachineRegisterInfoEE3$_1E9_M_invokeERKSt9_Any_dataS2_"(ptr nocapture noundef nonnull readonly align 8 dereferenceable(16) %0, ptr nocapture noundef nonnull readonly align 8 dereferenceable(16) %1) #0 align 2 {
  %3 = alloca %"class.llvm::MachineOperand", align 8
  %.val = load ptr, ptr %0, align 8
  %.val2 = load ptr, ptr %1, align 8
  %4 = getelementptr inbounds i8, ptr %1, i64 8
  %.val3 = load ptr, ptr %4, align 8
  %5 = load ptr, ptr %.val, align 8
  %6 = getelementptr inbounds nuw i8, ptr %.val, i64 8
  %7 = load i64, ptr %6, align 8
  %8 = getelementptr inbounds nuw i8, ptr %.val, i64 16
  %9 = load i32, ptr %8, align 8
  call void @llvm.lifetime.start.p0(i64 32, ptr nonnull %3)
  %10 = getelementptr inbounds nuw i8, ptr %3, i64 8
  store ptr null, ptr %10, align 8, !alias.scope !193
  %11 = getelementptr inbounds nuw i8, ptr %3, i64 16
  store ptr %5, ptr %11, align 8, !alias.scope !193
  %12 = trunc i64 %7 to i32
  %13 = getelementptr inbounds nuw i8, ptr %3, i64 4
  store i32 %12, ptr %13, align 4, !alias.scope !193
  %14 = lshr i64 %7, 32
  %15 = trunc nuw i64 %14 to i32
  %16 = getelementptr inbounds i8, ptr %3, i64 24
  store i32 %15, ptr %16, align 8, !alias.scope !193
  %17 = shl i32 %9, 8
  %18 = and i32 %17, 1039616
  %19 = or disjoint i32 %18, 8714
  store i32 %19, ptr %3, align 8, !alias.scope !193
  call void @_ZN4llvm12MachineInstr10addOperandERNS_15MachineFunctionERKNS_14MachineOperandE(ptr noundef nonnull align 8 dereferenceable(70) %.val3, ptr noundef nonnull align 8 dereferenceable(1041) %.val2, ptr noundef nonnull align 8 dereferenceable(32) %3) #24
  call void @llvm.lifetime.end.p0(i64 32, ptr nonnull %3)
  ret void
}